; Function Attrs: mustprogress nofree norecurse nosync nounwind willreturn memory(argmem: readwrite) uwtable
define void @ssl_session_calculate_timeout(ptr noundef captures(none) initializes((744, 752)) %0) local_unnamed_addr #0 {
  %2 = getelementptr inbounds nuw i8, ptr %0, i64 744
  %3 = getelementptr inbounds nuw i8, ptr %0, i64 736
  %4 = getelementptr inbounds nuw i8, ptr %0, i64 728
  %5 = load i64, ptr %3, align 8
  %6 = load i64, ptr %4, align 8
  %.sroa.03.0.i = tail call i64 @llvm.uadd.sat.i64(i64 %5, i64 %6)
  store i64 %.sroa.03.0.i, ptr %2, align 8, !tbaa !3
  ret void
}